; ModuleID = '56/366.c'
source_filename = "56/366.c"
target datalayout = "e-m:e-p270:32:32-p271:32:32-p272:64:64-i64:64-f80:128-n8:16:32:64-S128"
target triple = "x86_64-pc-linux-gnu"

@.str = private unnamed_addr constant [3 x i8] c"%d\00", align 1
@.str.1 = private unnamed_addr constant [5 x i8] c"%d%d\00", align 1
@.str.2 = private unnamed_addr constant [7 x i8] c"%d%d%d\00", align 1
@.str.3 = private unnamed_addr constant [9 x i8] c"%d%d%d%d\00", align 1
@.str.4 = private unnamed_addr constant [11 x i8] c"%d%d%d%d%d\00", align 1

; Function Attrs: noinline nounwind uwtable
define dso_local i32 @main() #0 {
  %1 = alloca i32, align 4
  %2 = alloca i32, align 4
  %3 = alloca i32, align 4
  %4 = alloca i32, align 4
  %5 = alloca i32, align 4
  %6 = alloca i32, align 4
  %7 = alloca i32, align 4
  store i32 0, i32* %1, align 4
  %8 = call i32 (i8*, ...) @__isoc99_scanf(i8* getelementptr inbounds ([3 x i8], [3 x i8]* @.str, i64 0, i64 0), i32* %2)
  %9 = load i32, i32* %2, align 4
  %10 = srem i32 %9, 10
  store i32 %10, i32* %3, align 4
  %11 = load i32, i32* %2, align 4
  %12 = load i32, i32* %3, align 4
  %13 = sub nsw i32 %11, %12
  %14 = sdiv i32 %13, 10
  %15 = srem i32 %14, 10
  store i32 %15, i32* %4, align 4
  %16 = load i32, i32* %2, align 4
  %17 = load i32, i32* %3, align 4
  %18 = sub nsw i32 %16, %17
  %19 = load i32, i32* %4, align 4
  %20 = mul nsw i32 %19, 10
  %21 = sub nsw i32 %18, %20
  %22 = sdiv i32 %21, 100
  %23 = srem i32 %22, 10
  store i32 %23, i32* %5, align 4
  %24 = load i32, i32* %2, align 4
  %25 = load i32, i32* %3, align 4
  %26 = sub nsw i32 %24, %25
  %27 = load i32, i32* %4, align 4
  %28 = mul nsw i32 10, %27
  %29 = sub nsw i32 %26, %28
  %30 = load i32, i32* %5, align 4
  %31 = mul nsw i32 100, %30
  %32 = sub nsw i32 %29, %31
  %33 = sdiv i32 %32, 1000
  %34 = srem i32 %33, 10
  store i32 %34, i32* %6, align 4
  %35 = load i32, i32* %2, align 4
  %36 = load i32, i32* %3, align 4
  %37 = sub nsw i32 %35, %36
  %38 = load i32, i32* %4, align 4
  %39 = mul nsw i32 10, %38
  %40 = sub nsw i32 %37, %39
  %41 = load i32, i32* %5, align 4
  %42 = mul nsw i32 100, %41
  %43 = sub nsw i32 %40, %42
  %44 = load i32, i32* %6, align 4
  %45 = mul nsw i32 1000, %44
  %46 = sub nsw i32 %43, %45
  %47 = sdiv i32 %46, 10000
  %48 = srem i32 %47, 10
  store i32 %48, i32* %7, align 4
  %49 = load i32, i32* %4, align 4
  %50 = icmp eq i32 %49, 0
  br i1 %50, label %51, label %54

51:                                               ; preds = %0
  %52 = load i32, i32* %3, align 4
  %53 = call i32 (i8*, ...) @printf(i8* getelementptr inbounds ([3 x i8], [3 x i8]* @.str, i64 0, i64 0), i32 %52)
  br label %54

54:                                               ; preds = %51, %0
  %55 = load i32, i32* %5, align 4
  %56 = icmp eq i32 %55, 0
  br i1 %56, label %57, label %64

57:                                               ; preds = %54
  %58 = load i32, i32* %4, align 4
  %59 = icmp ne i32 %58, 0
  br i1 %59, label %60, label %64

60:                                               ; preds = %57
  %61 = load i32, i32* %3, align 4
  %62 = load i32, i32* %4, align 4
  %63 = call i32 (i8*, ...) @printf(i8* getelementptr inbounds ([5 x i8], [5 x i8]* @.str.1, i64 0, i64 0), i32 %61, i32 %62)
  br label %64

64:                                               ; preds = %60, %57, %54
  %65 = load i32, i32* %6, align 4
  %66 = icmp eq i32 %65, 0
  br i1 %66, label %67, label %75

67:                                               ; preds = %64
  %68 = load i32, i32* %5, align 4
  %69 = icmp ne i32 %68, 0
  br i1 %69, label %70, label %75

70:                                               ; preds = %67
  %71 = load i32, i32* %3, align 4
  %72 = load i32, i32* %4, align 4
  %73 = load i32, i32* %5, align 4
  %74 = call i32 (i8*, ...) @printf(i8* getelementptr inbounds ([7 x i8], [7 x i8]* @.str.2, i64 0, i64 0), i32 %71, i32 %72, i32 %73)
  br label %75

75:                                               ; preds = %70, %67, %64
  %76 = load i32, i32* %7, align 4
  %77 = icmp eq i32 %76, 0
  br i1 %77, label %78, label %87

78:                                               ; preds = %75
  %79 = load i32, i32* %6, align 4
  %80 = icmp ne i32 %79, 0
  br i1 %80, label %81, label %87

81:                                               ; preds = %78
  %82 = load i32, i32* %3, align 4
  %83 = load i32, i32* %4, align 4
  %84 = load i32, i32* %5, align 4
  %85 = load i32, i32* %6, align 4
  %86 = call i32 (i8*, ...) @printf(i8* getelementptr inbounds ([9 x i8], [9 x i8]* @.str.3, i64 0, i64 0), i32 %82, i32 %83, i32 %84, i32 %85)
  br label %87

87:                                               ; preds = %81, %78, %75
  %88 = load i32, i32* %7, align 4
  %89 = icmp ne i32 %88, 0
  br i1 %89, label %90, label %97

90:                                               ; preds = %87
  %91 = load i32, i32* %3, align 4
  %92 = load i32, i32* %4, align 4
  %93 = load i32, i32* %5, align 4
  %94 = load i32, i32* %6, align 4
  %95 = load i32, i32* %7, align 4
  %96 = call i32 (i8*, ...) @printf(i8* getelementptr inbounds ([11 x i8], [11 x i8]* @.str.4, i64 0, i64 0), i32 %91, i32 %92, i32 %93, i32 %94, i32 %95)
  br label %97

97:                                               ; preds = %90, %87
  ret i32 0
}

declare dso_local i32 @__isoc99_scanf(i8*, ...) #1

declare dso_local i32 @printf(i8*, ...) #1


!llvm.module.flags = !{!0}
!llvm.ident = !{!1}

!0 = !{i32 1, !"wchar_size", i32 4}
!1 = !{!"clang version 10.0.0-4ubuntu1 "}
